; ModuleID = 'source-C-CXX/52/73.c'
source_filename = "source-C-CXX/52/73.c"
target datalayout = "e-m:e-p270:32:32-p271:32:32-p272:64:64-i64:64-f80:128-n8:16:32:64-S128"
target triple = "x86_64-pc-linux-gnu"

@.str = private unnamed_addr constant [3 x i8] c"%d\00", align 1
@.str.1 = private unnamed_addr constant [4 x i8] c"%d,\00", align 1

; Function Attrs: nofree norecurse nosync nounwind readonly sspstrong uwtable
define dso_local signext i8 @belong(i32 %0, i32* nocapture readonly %1, i32 %2) local_unnamed_addr #0 {
  %4 = icmp slt i32 %2, 1
  br i1 %4, label %16, label %5

5:                                                ; preds = %3
  %6 = add nuw i32 %2, 1
  %7 = zext i32 %6 to i64
  br label %11

8:                                                ; preds = %11
  %9 = add nuw nsw i64 %12, 1
  %10 = icmp eq i64 %9, %7
  br i1 %10, label %16, label %11, !llvm.loop !5

11:                                               ; preds = %5, %8
  %12 = phi i64 [ 1, %5 ], [ %9, %8 ]
  %13 = getelementptr inbounds i32, i32* %1, i64 %12
  %14 = load i32, i32* %13, align 4, !tbaa !7
  %15 = icmp eq i32 %14, %0
  br i1 %15, label %16, label %8

16:                                               ; preds = %11, %8, %3
  %17 = phi i8 [ 1, %3 ], [ 1, %8 ], [ 0, %11 ]
  ret i8 %17
}

; Function Attrs: argmemonly mustprogress nofree nosync nounwind willreturn
declare void @llvm.lifetime.start.p0i8(i64 immarg, i8* nocapture) #1

; Function Attrs: argmemonly mustprogress nofree nosync nounwind willreturn
declare void @llvm.lifetime.end.p0i8(i64 immarg, i8* nocapture) #1

; Function Attrs: nofree nounwind sspstrong uwtable
define dso_local void @main() local_unnamed_addr #2 {
  %1 = alloca i32, align 4
  %2 = alloca [300 x i32], align 16
  %3 = alloca [300 x i32], align 16
  %4 = bitcast i32* %1 to i8*
  call void @llvm.lifetime.start.p0i8(i64 4, i8* nonnull %4) #5
  %5 = bitcast [300 x i32]* %2 to i8*
  call void @llvm.lifetime.start.p0i8(i64 1200, i8* nonnull %5) #5
  %6 = bitcast [300 x i32]* %3 to i8*
  call void @llvm.lifetime.start.p0i8(i64 1200, i8* nonnull %6) #5
  call void @llvm.memset.p0i8.i64(i8* noundef nonnull align 16 dereferenceable(1200) %6, i8 0, i64 1200, i1 false)
  %7 = call i32 (i8*, ...) @__isoc99_scanf(i8* getelementptr inbounds ([3 x i8], [3 x i8]* @.str, i64 0, i64 0), i32* nonnull %1)
  %8 = load i32, i32* %1, align 4, !tbaa !7
  %9 = icmp sgt i32 %8, 0
  br i1 %9, label %14, label %57

10:                                               ; preds = %14
  %11 = icmp sgt i32 %19, 0
  br i1 %11, label %12, label %57

12:                                               ; preds = %10
  %13 = zext i32 %19 to i64
  br label %26

14:                                               ; preds = %0, %14
  %15 = phi i64 [ %18, %14 ], [ 0, %0 ]
  %16 = getelementptr inbounds [300 x i32], [300 x i32]* %2, i64 0, i64 %15
  %17 = call i32 (i8*, ...) @__isoc99_scanf(i8* getelementptr inbounds ([3 x i8], [3 x i8]* @.str, i64 0, i64 0), i32* nonnull %16)
  %18 = add nuw nsw i64 %15, 1
  %19 = load i32, i32* %1, align 4, !tbaa !7
  %20 = sext i32 %19 to i64
  %21 = icmp slt i64 %18, %20
  br i1 %21, label %14, label %10, !llvm.loop !11

22:                                               ; preds = %46
  %23 = icmp sgt i32 %47, 1
  br i1 %23, label %24, label %57

24:                                               ; preds = %22
  %25 = zext i32 %47 to i64
  br label %50

26:                                               ; preds = %12, %46
  %27 = phi i64 [ 0, %12 ], [ %48, %46 ]
  %28 = phi i32 [ 0, %12 ], [ %47, %46 ]
  %29 = getelementptr inbounds [300 x i32], [300 x i32]* %2, i64 0, i64 %27
  %30 = load i32, i32* %29, align 4, !tbaa !7
  %31 = icmp slt i32 %28, 1
  %32 = add i32 %28, 1
  br i1 %31, label %43, label %33

33:                                               ; preds = %26
  %34 = zext i32 %32 to i64
  br label %38

35:                                               ; preds = %38
  %36 = add nuw nsw i64 %39, 1
  %37 = icmp eq i64 %36, %34
  br i1 %37, label %43, label %38, !llvm.loop !5

38:                                               ; preds = %35, %33
  %39 = phi i64 [ 1, %33 ], [ %36, %35 ]
  %40 = getelementptr inbounds [300 x i32], [300 x i32]* %3, i64 0, i64 %39
  %41 = load i32, i32* %40, align 4, !tbaa !7
  %42 = icmp eq i32 %41, %30
  br i1 %42, label %46, label %35

43:                                               ; preds = %35, %26
  %44 = sext i32 %32 to i64
  %45 = getelementptr inbounds [300 x i32], [300 x i32]* %3, i64 0, i64 %44
  store i32 %30, i32* %45, align 4, !tbaa !7
  br label %46

46:                                               ; preds = %38, %43
  %47 = phi i32 [ %32, %43 ], [ %28, %38 ]
  %48 = add nuw nsw i64 %27, 1
  %49 = icmp eq i64 %48, %13
  br i1 %49, label %22, label %26, !llvm.loop !12

50:                                               ; preds = %24, %50
  %51 = phi i64 [ 1, %24 ], [ %55, %50 ]
  %52 = getelementptr inbounds [300 x i32], [300 x i32]* %3, i64 0, i64 %51
  %53 = load i32, i32* %52, align 4, !tbaa !7
  %54 = call i32 (i8*, ...) @printf(i8* nonnull dereferenceable(1) getelementptr inbounds ([4 x i8], [4 x i8]* @.str.1, i64 0, i64 0), i32 %53)
  %55 = add nuw nsw i64 %51, 1
  %56 = icmp eq i64 %55, %25
  br i1 %56, label %57, label %50, !llvm.loop !13

57:                                               ; preds = %50, %0, %10, %22
  %58 = phi i32 [ %47, %22 ], [ 0, %10 ], [ 0, %0 ], [ %47, %50 ]
  %59 = sext i32 %58 to i64
  %60 = getelementptr inbounds [300 x i32], [300 x i32]* %3, i64 0, i64 %59
  %61 = load i32, i32* %60, align 4, !tbaa !7
  %62 = call i32 (i8*, ...) @printf(i8* nonnull dereferenceable(1) getelementptr inbounds ([3 x i8], [3 x i8]* @.str, i64 0, i64 0), i32 %61)
  call void @llvm.lifetime.end.p0i8(i64 1200, i8* nonnull %6) #5
  call void @llvm.lifetime.end.p0i8(i64 1200, i8* nonnull %5) #5
  call void @llvm.lifetime.end.p0i8(i64 4, i8* nonnull %4) #5
  ret void
}

; Function Attrs: argmemonly mustprogress nofree nounwind willreturn writeonly
declare void @llvm.memset.p0i8.i64(i8* nocapture writeonly, i8, i64, i1 immarg) #3

; Function Attrs: nofree nounwind
declare noundef i32 @__isoc99_scanf(i8* nocapture noundef readonly, ...) local_unnamed_addr #4

; Function Attrs: nofree nounwind
declare noundef i32 @printf(i8* nocapture noundef readonly, ...) local_unnamed_addr #4


!llvm.module.flags = !{!0, !1, !2, !3}
!llvm.ident = !{!4}

!0 = !{i32 1, !"wchar_size", i32 4}
!1 = !{i32 7, !"PIC Level", i32 2}
!2 = !{i32 7, !"PIE Level", i32 2}
!3 = !{i32 7, !"uwtable", i32 1}
!4 = !{!"clang version 13.0.0"}
!5 = distinct !{!5, !6}
!6 = !{!"llvm.loop.mustprogress"}
!7 = !{!8, !8, i64 0}
!8 = !{!"int", !9, i64 0}
!9 = !{!"omnipotent char", !10, i64 0}
!10 = !{!"Simple C/C++ TBAA"}
!11 = distinct !{!11, !6}
!12 = distinct !{!12, !6}
!13 = distinct !{!13, !6}
